; ModuleID = 'source-C-CXX/22/396.cpp'
source_filename = "source-C-CXX/22/396.cpp"
target datalayout = "e-m:e-p270:32:32-p271:32:32-p272:64:64-i64:64-f80:128-n8:16:32:64-S128"
target triple = "x86_64-pc-linux-gnu"

%"class.std::ios_base::Init" = type { i8 }
%"class.std::basic_istream" = type { i32 (...)**, i64, %"class.std::basic_ios" }
%"class.std::basic_ios" = type { %"class.std::ios_base", %"class.std::basic_ostream"*, i8, i8, %"class.std::basic_streambuf"*, %"class.std::ctype"*, %"class.std::num_put"*, %"class.std::num_get"* }
%"class.std::ios_base" = type { i32 (...)**, i64, i64, i32, i32, i32, %"struct.std::ios_base::_Callback_list"*, %"struct.std::ios_base::_Words", [8 x %"struct.std::ios_base::_Words"], i32, %"struct.std::ios_base::_Words"*, %"class.std::locale" }
%"struct.std::ios_base::_Callback_list" = type { %"struct.std::ios_base::_Callback_list"*, void (i32, %"class.std::ios_base"*, i32)*, i32, i32 }
%"struct.std::ios_base::_Words" = type { i8*, i64 }
%"class.std::locale" = type { %"class.std::locale::_Impl"* }
%"class.std::locale::_Impl" = type { i32, %"class.std::locale::facet"**, i64, %"class.std::locale::facet"**, i8** }
%"class.std::locale::facet" = type <{ i32 (...)**, i32, [4 x i8] }>
%"class.std::basic_ostream" = type { i32 (...)**, %"class.std::basic_ios" }
%"class.std::basic_streambuf" = type { i32 (...)**, i8*, i8*, i8*, i8*, i8*, i8*, %"class.std::locale" }
%"class.std::ctype" = type <{ %"class.std::locale::facet.base", [4 x i8], %struct.__locale_struct*, i8, [7 x i8], i32*, i32*, i16*, i8, [256 x i8], [256 x i8], i8, [6 x i8] }>
%"class.std::locale::facet.base" = type <{ i32 (...)**, i32 }>
%struct.__locale_struct = type { [13 x %struct.__locale_data*], i16*, i32*, i32*, [13 x i8*] }
%struct.__locale_data = type opaque
%"class.std::num_put" = type { %"class.std::locale::facet.base", [4 x i8] }
%"class.std::num_get" = type { %"class.std::locale::facet.base", [4 x i8] }

@_ZStL8__ioinit = internal global %"class.std::ios_base::Init" zeroinitializer, align 1
@__dso_handle = external hidden global i8
@_ZSt3cin = external global %"class.std::basic_istream", align 8
@_ZSt4cout = external global %"class.std::basic_ostream", align 8
@.str = private unnamed_addr constant [2 x i8] c" \00", align 1
@llvm.global_ctors = appending global [1 x { i32, void ()*, i8* }] [{ i32, void ()*, i8* } { i32 65535, void ()* @_GLOBAL__sub_I_396.cpp, i8* null }]

declare void @_ZNSt8ios_base4InitC1Ev(%"class.std::ios_base::Init"* nonnull align 1 dereferenceable(1)) unnamed_addr #0

; Function Attrs: nounwind
declare void @_ZNSt8ios_base4InitD1Ev(%"class.std::ios_base::Init"* nonnull align 1 dereferenceable(1)) unnamed_addr #1

; Function Attrs: nofree nounwind
declare i32 @__cxa_atexit(void (i8*)*, i8*, i8*) local_unnamed_addr #2

; Function Attrs: mustprogress norecurse sspstrong uwtable
define dso_local i32 @main() local_unnamed_addr #3 {
  %1 = alloca i8, align 1
  %2 = alloca i8, align 1
  %3 = alloca [100 x i8], align 16
  %4 = alloca [100 x [2 x i32]], align 16
  %5 = getelementptr inbounds [100 x i8], [100 x i8]* %3, i64 0, i64 0
  call void @llvm.lifetime.start.p0i8(i64 100, i8* nonnull %5) #9
  %6 = bitcast [100 x [2 x i32]]* %4 to i8*
  call void @llvm.lifetime.start.p0i8(i64 800, i8* nonnull %6) #9
  call void @llvm.memset.p0i8.i64(i8* noundef nonnull align 16 dereferenceable(800) %6, i8 0, i64 800, i1 false)
  %7 = load i8*, i8** bitcast (%"class.std::basic_istream"* @_ZSt3cin to i8**), align 8, !tbaa !5
  %8 = getelementptr i8, i8* %7, i64 -24
  %9 = bitcast i8* %8 to i64*
  %10 = load i64, i64* %9, align 8
  %11 = add nsw i64 %10, 240
  %12 = getelementptr inbounds i8, i8* bitcast (%"class.std::basic_istream"* @_ZSt3cin to i8*), i64 %11
  %13 = bitcast i8* %12 to %"class.std::ctype"**
  %14 = load %"class.std::ctype"*, %"class.std::ctype"** %13, align 8, !tbaa !8
  %15 = icmp eq %"class.std::ctype"* %14, null
  br i1 %15, label %16, label %17

16:                                               ; preds = %0
  tail call void @_ZSt16__throw_bad_castv() #10
  unreachable

17:                                               ; preds = %0
  %18 = getelementptr inbounds %"class.std::ctype", %"class.std::ctype"* %14, i64 0, i32 8
  %19 = load i8, i8* %18, align 8, !tbaa !13
  %20 = icmp eq i8 %19, 0
  br i1 %20, label %24, label %21

21:                                               ; preds = %17
  %22 = getelementptr inbounds %"class.std::ctype", %"class.std::ctype"* %14, i64 0, i32 9, i64 10
  %23 = load i8, i8* %22, align 1, !tbaa !15
  br label %30

24:                                               ; preds = %17
  tail call void @_ZNKSt5ctypeIcE13_M_widen_initEv(%"class.std::ctype"* nonnull align 8 dereferenceable(570) %14)
  %25 = bitcast %"class.std::ctype"* %14 to i8 (%"class.std::ctype"*, i8)***
  %26 = load i8 (%"class.std::ctype"*, i8)**, i8 (%"class.std::ctype"*, i8)*** %25, align 8, !tbaa !5
  %27 = getelementptr inbounds i8 (%"class.std::ctype"*, i8)*, i8 (%"class.std::ctype"*, i8)** %26, i64 6
  %28 = load i8 (%"class.std::ctype"*, i8)*, i8 (%"class.std::ctype"*, i8)** %27, align 8
  %29 = tail call signext i8 %28(%"class.std::ctype"* nonnull align 8 dereferenceable(570) %14, i8 signext 10)
  br label %30

30:                                               ; preds = %21, %24
  %31 = phi i8 [ %23, %21 ], [ %29, %24 ]
  %32 = call nonnull align 8 dereferenceable(16) %"class.std::basic_istream"* @_ZNSi7getlineEPclc(%"class.std::basic_istream"* nonnull align 8 dereferenceable(16) @_ZSt3cin, i8* nonnull %5, i64 1000, i8 signext %31)
  %33 = call i64 @strlen(i8* noundef nonnull %5) #11
  %34 = trunc i64 %33 to i32
  %35 = icmp sgt i32 %34, 0
  br i1 %35, label %36, label %90

36:                                               ; preds = %30
  %37 = and i64 %33, 4294967295
  br label %42

38:                                               ; preds = %63
  %39 = icmp sgt i32 %64, 1
  br i1 %39, label %40, label %90

40:                                               ; preds = %38
  %41 = zext i32 %64 to i64
  br label %66

42:                                               ; preds = %36, %63
  %43 = phi i64 [ 0, %36 ], [ %48, %63 ]
  %44 = phi i32 [ 0, %36 ], [ %64, %63 ]
  %45 = getelementptr inbounds [100 x i8], [100 x i8]* %3, i64 0, i64 %43
  %46 = load i8, i8* %45, align 1, !tbaa !15
  %47 = icmp eq i8 %46, 32
  %48 = add nuw nsw i64 %43, 1
  %49 = getelementptr inbounds [100 x i8], [100 x i8]* %3, i64 0, i64 %48
  %50 = load i8, i8* %49, align 1, !tbaa !15
  br i1 %47, label %57, label %51

51:                                               ; preds = %42
  switch i8 %50, label %63 [
    i8 32, label %52
    i8 0, label %52
  ]

52:                                               ; preds = %51, %51
  %53 = sext i32 %44 to i64
  %54 = getelementptr inbounds [100 x [2 x i32]], [100 x [2 x i32]]* %4, i64 0, i64 %53, i64 1
  %55 = trunc i64 %48 to i32
  store i32 %55, i32* %54, align 4, !tbaa !16
  %56 = add nsw i32 %44, 1
  br label %63

57:                                               ; preds = %42
  %58 = icmp eq i8 %50, 32
  br i1 %58, label %63, label %59

59:                                               ; preds = %57
  %60 = sext i32 %44 to i64
  %61 = getelementptr inbounds [100 x [2 x i32]], [100 x [2 x i32]]* %4, i64 0, i64 %60, i64 0
  %62 = trunc i64 %48 to i32
  store i32 %62, i32* %61, align 8, !tbaa !16
  br label %63

63:                                               ; preds = %52, %51, %57, %59
  %64 = phi i32 [ %56, %52 ], [ %44, %51 ], [ %44, %57 ], [ %44, %59 ]
  %65 = icmp eq i64 %48, %37
  br i1 %65, label %38, label %42, !llvm.loop !18

66:                                               ; preds = %40, %86
  %67 = phi i64 [ %41, %40 ], [ %89, %86 ]
  %68 = phi i32 [ %64, %40 ], [ %69, %86 ]
  %69 = add nsw i32 %68, -1
  %70 = zext i32 %69 to i64
  %71 = getelementptr inbounds [100 x [2 x i32]], [100 x [2 x i32]]* %4, i64 0, i64 %70, i64 0
  %72 = load i32, i32* %71, align 8, !tbaa !16
  %73 = getelementptr inbounds [100 x [2 x i32]], [100 x [2 x i32]]* %4, i64 0, i64 %70, i64 1
  %74 = load i32, i32* %73, align 4, !tbaa !16
  %75 = icmp slt i32 %72, %74
  br i1 %75, label %76, label %86

76:                                               ; preds = %66
  %77 = sext i32 %72 to i64
  br label %78

78:                                               ; preds = %76, %78
  %79 = phi i64 [ %77, %76 ], [ %83, %78 ]
  %80 = getelementptr inbounds [100 x i8], [100 x i8]* %3, i64 0, i64 %79
  %81 = load i8, i8* %80, align 1, !tbaa !15
  call void @llvm.lifetime.start.p0i8(i64 1, i8* nonnull %2)
  store i8 %81, i8* %2, align 1, !tbaa !15
  %82 = call nonnull align 8 dereferenceable(8) %"class.std::basic_ostream"* @_ZSt16__ostream_insertIcSt11char_traitsIcEERSt13basic_ostreamIT_T0_ES6_PKS3_l(%"class.std::basic_ostream"* nonnull align 8 dereferenceable(8) @_ZSt4cout, i8* nonnull %2, i64 1)
  call void @llvm.lifetime.end.p0i8(i64 1, i8* nonnull %2)
  %83 = add nsw i64 %79, 1
  %84 = trunc i64 %83 to i32
  %85 = icmp eq i32 %74, %84
  br i1 %85, label %86, label %78, !llvm.loop !20

86:                                               ; preds = %78, %66
  %87 = call nonnull align 8 dereferenceable(8) %"class.std::basic_ostream"* @_ZSt16__ostream_insertIcSt11char_traitsIcEERSt13basic_ostreamIT_T0_ES6_PKS3_l(%"class.std::basic_ostream"* nonnull align 8 dereferenceable(8) @_ZSt4cout, i8* nonnull getelementptr inbounds ([2 x i8], [2 x i8]* @.str, i64 0, i64 0), i64 1)
  %88 = icmp sgt i64 %67, 2
  %89 = add nsw i64 %67, -1
  br i1 %88, label %66, label %90, !llvm.loop !21

90:                                               ; preds = %86, %30, %38
  %91 = getelementptr inbounds [100 x [2 x i32]], [100 x [2 x i32]]* %4, i64 0, i64 0, i64 0
  %92 = load i32, i32* %91, align 16, !tbaa !16
  %93 = getelementptr inbounds [100 x [2 x i32]], [100 x [2 x i32]]* %4, i64 0, i64 0, i64 1
  %94 = load i32, i32* %93, align 4, !tbaa !16
  %95 = icmp slt i32 %92, %94
  br i1 %95, label %96, label %106

96:                                               ; preds = %90
  %97 = sext i32 %92 to i64
  br label %98

98:                                               ; preds = %96, %98
  %99 = phi i64 [ %97, %96 ], [ %103, %98 ]
  %100 = getelementptr inbounds [100 x i8], [100 x i8]* %3, i64 0, i64 %99
  %101 = load i8, i8* %100, align 1, !tbaa !15
  call void @llvm.lifetime.start.p0i8(i64 1, i8* nonnull %1)
  store i8 %101, i8* %1, align 1, !tbaa !15
  %102 = call nonnull align 8 dereferenceable(8) %"class.std::basic_ostream"* @_ZSt16__ostream_insertIcSt11char_traitsIcEERSt13basic_ostreamIT_T0_ES6_PKS3_l(%"class.std::basic_ostream"* nonnull align 8 dereferenceable(8) @_ZSt4cout, i8* nonnull %1, i64 1)
  call void @llvm.lifetime.end.p0i8(i64 1, i8* nonnull %1)
  %103 = add nsw i64 %99, 1
  %104 = trunc i64 %103 to i32
  %105 = icmp eq i32 %94, %104
  br i1 %105, label %106, label %98, !llvm.loop !22

106:                                              ; preds = %98, %90
  %107 = call i32 @_ZNSi3getEv(%"class.std::basic_istream"* nonnull align 8 dereferenceable(16) @_ZSt3cin)
  %108 = call i32 @_ZNSi3getEv(%"class.std::basic_istream"* nonnull align 8 dereferenceable(16) @_ZSt3cin)
  %109 = call i32 @_ZNSi3getEv(%"class.std::basic_istream"* nonnull align 8 dereferenceable(16) @_ZSt3cin)
  call void @llvm.lifetime.end.p0i8(i64 800, i8* nonnull %6) #9
  call void @llvm.lifetime.end.p0i8(i64 100, i8* nonnull %5) #9
  ret i32 0
}

; Function Attrs: argmemonly mustprogress nofree nosync nounwind willreturn
declare void @llvm.lifetime.start.p0i8(i64 immarg, i8* nocapture) #4

; Function Attrs: argmemonly mustprogress nofree nounwind willreturn writeonly
declare void @llvm.memset.p0i8.i64(i8* nocapture writeonly, i8, i64, i1 immarg) #5

; Function Attrs: argmemonly mustprogress nofree nounwind readonly willreturn
declare i64 @strlen(i8* nocapture) local_unnamed_addr #6

declare i32 @_ZNSi3getEv(%"class.std::basic_istream"* nonnull align 8 dereferenceable(16)) local_unnamed_addr #0

; Function Attrs: argmemonly mustprogress nofree nosync nounwind willreturn
declare void @llvm.lifetime.end.p0i8(i64 immarg, i8* nocapture) #4

declare nonnull align 8 dereferenceable(16) %"class.std::basic_istream"* @_ZNSi7getlineEPclc(%"class.std::basic_istream"* nonnull align 8 dereferenceable(16), i8*, i64, i8 signext) local_unnamed_addr #0

; Function Attrs: noreturn
declare void @_ZSt16__throw_bad_castv() local_unnamed_addr #7

declare void @_ZNKSt5ctypeIcE13_M_widen_initEv(%"class.std::ctype"* nonnull align 8 dereferenceable(570)) local_unnamed_addr #0

declare nonnull align 8 dereferenceable(8) %"class.std::basic_ostream"* @_ZSt16__ostream_insertIcSt11char_traitsIcEERSt13basic_ostreamIT_T0_ES6_PKS3_l(%"class.std::basic_ostream"* nonnull align 8 dereferenceable(8), i8*, i64) local_unnamed_addr #0

; Function Attrs: sspstrong uwtable
define internal void @_GLOBAL__sub_I_396.cpp() #8 section ".text.startup" {
  tail call void @_ZNSt8ios_base4InitC1Ev(%"class.std::ios_base::Init"* nonnull align 1 dereferenceable(1) @_ZStL8__ioinit)
  %1 = tail call i32 @__cxa_atexit(void (i8*)* bitcast (void (%"class.std::ios_base::Init"*)* @_ZNSt8ios_base4InitD1Ev to void (i8*)*), i8* getelementptr inbounds (%"class.std::ios_base::Init", %"class.std::ios_base::Init"* @_ZStL8__ioinit, i64 0, i32 0), i8* nonnull @__dso_handle) #9
  ret void
}


!llvm.module.flags = !{!0, !1, !2, !3}
!llvm.ident = !{!4}

!0 = !{i32 1, !"wchar_size", i32 4}
!1 = !{i32 7, !"PIC Level", i32 2}
!2 = !{i32 7, !"PIE Level", i32 2}
!3 = !{i32 7, !"uwtable", i32 1}
!4 = !{!"clang version 13.0.0"}
!5 = !{!6, !6, i64 0}
!6 = !{!"vtable pointer", !7, i64 0}
!7 = !{!"Simple C++ TBAA"}
!8 = !{!9, !10, i64 240}
!9 = !{!"_ZTSSt9basic_iosIcSt11char_traitsIcEE", !10, i64 216, !11, i64 224, !12, i64 225, !10, i64 232, !10, i64 240, !10, i64 248, !10, i64 256}
!10 = !{!"any pointer", !11, i64 0}
!11 = !{!"omnipotent char", !7, i64 0}
!12 = !{!"bool", !11, i64 0}
!13 = !{!14, !11, i64 56}
!14 = !{!"_ZTSSt5ctypeIcE", !10, i64 16, !12, i64 24, !10, i64 32, !10, i64 40, !10, i64 48, !11, i64 56, !11, i64 57, !11, i64 313, !11, i64 569}
!15 = !{!11, !11, i64 0}
!16 = !{!17, !17, i64 0}
!17 = !{!"int", !11, i64 0}
!18 = distinct !{!18, !19}
!19 = !{!"llvm.loop.mustprogress"}
!20 = distinct !{!20, !19}
!21 = distinct !{!21, !19}
!22 = distinct !{!22, !19}
